; Function Attrs: mustprogress uwtable
define void @_ZN6icu_776number4impl15DecimalQuantity13readLongToBcdEl(ptr noundef nonnull align 8 captures(none) dereferenceable(66) %0, i64 noundef %1) local_unnamed_addr #1 align 2 {
  %3 = icmp sgt i64 %1, 9999999999999999
  br i1 %3, label %4, label %.preheader

.preheader:                                       ; preds = %2
  %.not21 = icmp eq i64 %1, 0
  br i1 %.not21, label %._crit_edge, label %.lr.ph

4:                                                ; preds = %2
  %5 = getelementptr inbounds nuw i8, ptr %0, i64 64
  %6 = load i8, ptr %5, align 8, !tbaa !22, !range !24, !noundef !25
  %7 = trunc nuw i8 %6 to i1
  %8 = getelementptr inbounds nuw i8, ptr %0, i64 56
  %9 = load i32, ptr %8, align 8
  br i1 %7, label %13, label %10

10:                                               ; preds = %4
  %11 = tail call noalias dereferenceable_or_null(40) ptr @uprv_malloc_77(i64 noundef 40) #27
  %12 = getelementptr inbounds nuw i8, ptr %0, i64 48
  store ptr %11, ptr %12, align 8, !tbaa !26
  store i32 40, ptr %8, align 8, !tbaa !26
  tail call void @llvm.memset.p0.i64(ptr noundef nonnull align 1 dereferenceable(40) %11, i8 0, i64 40, i1 false)
  br label %_ZN6icu_776number4impl15DecimalQuantity14ensureCapacityEv.exit

13:                                               ; preds = %4
  %14 = icmp slt i32 %9, 40
  br i1 %14, label %15, label %_ZN6icu_776number4impl15DecimalQuantity14ensureCapacityEv.exit

15:                                               ; preds = %13
  %16 = tail call noalias dereferenceable_or_null(80) ptr @uprv_malloc_77(i64 noundef 80) #27
  %17 = getelementptr inbounds nuw i8, ptr %0, i64 48
  %18 = load ptr, ptr %17, align 8, !tbaa !26
  %19 = sext i32 %9 to i64
  tail call void @llvm.memcpy.p0.p0.i64(ptr align 1 %16, ptr align 1 %18, i64 %19, i1 false)
  %20 = getelementptr inbounds i8, ptr %16, i64 %19
  %21 = sub nsw i32 40, %9
  %22 = zext nneg i32 %21 to i64
  tail call void @llvm.memset.p0.i64(ptr align 1 %20, i8 0, i64 %22, i1 false)
  tail call void @uprv_free_77(ptr noundef %18)
  store ptr %16, ptr %17, align 8, !tbaa !26
  store i32 80, ptr %8, align 8, !tbaa !26
  br label %_ZN6icu_776number4impl15DecimalQuantity14ensureCapacityEv.exit

_ZN6icu_776number4impl15DecimalQuantity14ensureCapacityEv.exit: ; preds = %10, %13, %15
  store i8 1, ptr %5, align 8, !tbaa !22
  %23 = getelementptr inbounds nuw i8, ptr %0, i64 48
  br label %24

24:                                               ; preds = %_ZN6icu_776number4impl15DecimalQuantity14ensureCapacityEv.exit, %24
  %indvars.iv = phi i64 [ 0, %_ZN6icu_776number4impl15DecimalQuantity14ensureCapacityEv.exit ], [ %indvars.iv.next, %24 ]
  %.01726 = phi i64 [ %1, %_ZN6icu_776number4impl15DecimalQuantity14ensureCapacityEv.exit ], [ %29, %24 ]
  %25 = srem i64 %.01726, 10
  %26 = trunc nsw i64 %25 to i8
  %27 = load ptr, ptr %23, align 8, !tbaa !26
  %28 = getelementptr inbounds nuw i8, ptr %27, i64 %indvars.iv
  store i8 %26, ptr %28, align 1, !tbaa !26
  %29 = sdiv i64 %.01726, 10
  %indvars.iv.next = add nuw nsw i64 %indvars.iv, 1
  %.01726.off = add i64 %.01726, 9
  %.not20 = icmp ult i64 %.01726.off, 19
  br i1 %.not20, label %30, label %24, !llvm.loop !64

30:                                               ; preds = %24
  %31 = trunc nuw i64 %indvars.iv.next to i32
  %32 = getelementptr inbounds nuw i8, ptr %0, i64 12
  store i32 0, ptr %32, align 4, !tbaa !27
  br label %43

.lr.ph:                                           ; preds = %.preheader, %.lr.ph
  %.024 = phi i32 [ %36, %.lr.ph ], [ 16, %.preheader ]
  %.01523 = phi i64 [ %34, %.lr.ph ], [ 0, %.preheader ]
  %.122 = phi i64 [ %35, %.lr.ph ], [ %1, %.preheader ]
  %33 = srem i64 %.122, 10
  %34 = tail call i64 @llvm.fshl.i64(i64 %33, i64 %.01523, i64 60)
  %35 = sdiv i64 %.122, 10
  %36 = add nsw i32 %.024, -1
  %.122.off = add i64 %.122, 9
  %.not = icmp ult i64 %.122.off, 19
  br i1 %.not, label %._crit_edge, label %.lr.ph, !llvm.loop !65

._crit_edge:                                      ; preds = %.lr.ph, %.preheader
  %.015.lcssa = phi i64 [ 0, %.preheader ], [ %34, %.lr.ph ]
  %.0.lcssa = phi i32 [ 16, %.preheader ], [ %36, %.lr.ph ]
  %37 = shl nsw i32 %.0.lcssa, 2
  %38 = zext nneg i32 %37 to i64
  %39 = lshr i64 %.015.lcssa, %38
  %40 = getelementptr inbounds nuw i8, ptr %0, i64 48
  store i64 %39, ptr %40, align 8, !tbaa !26
  %41 = getelementptr inbounds nuw i8, ptr %0, i64 12
  store i32 0, ptr %41, align 4, !tbaa !27
  %42 = sub nsw i32 16, %.0.lcssa
  br label %43

43:                                               ; preds = %._crit_edge, %30
  %.sink = phi i32 [ %42, %._crit_edge ], [ %31, %30 ]
  %44 = getelementptr inbounds nuw i8, ptr %0, i64 16
  store i32 %.sink, ptr %44, align 8, !tbaa !28
  ret void
}